target datalayout = "e-m:e-p270:32:32-p271:32:32-p272:64:64-i64:64-i128:128-f80:128-n8:16:32:64-S128"
target triple = "x86_64-pc-linux-gnu"

%struct.SDL_Surface = type { i32, i32, i32, i32, i32, ptr, i32, ptr, i32, i32, ptr, i32, ptr, i32, ptr, i32, %struct.SDL_Rect, %struct.SDL_BlitMap }
%struct.SDL_Rect = type { i32, i32, i32, i32 }
%struct.SDL_BlitMap = type { i32, ptr, ptr, %struct.SDL_BlitInfo, i32, i32 }
%struct.SDL_BlitInfo = type { ptr, ptr, i32, i32, i32, i32, ptr, ptr, i32, i32, i32, i32, ptr, ptr, ptr, ptr, ptr, ptr, i32, i32, i8, i8, i8, i8 }

@SDL_surface_magic = internal global i8 0, align 1
@.str = private unnamed_addr constant [26 x i8] c"Parameter '%s' is invalid\00", align 1
@.str.5 = private unnamed_addr constant [8 x i8] c"surface\00", align 1

; Function Attrs: nounwind uwtable
define hidden zeroext i1 @SDL_SurfaceValid(ptr noundef %0) #0 {
  %2 = alloca ptr, align 8
  store ptr %0, ptr %2, align 8
  %3 = load ptr, ptr %2, align 8
  %4 = icmp ne ptr %3, null
  br i1 %4, label %5, label %10

5:                                                ; preds = %1
  %6 = load ptr, ptr %2, align 8
  %7 = getelementptr inbounds nuw %struct.SDL_Surface, ptr %6, i32 0, i32 7
  %8 = load ptr, ptr %7, align 8
  %9 = icmp eq ptr %8, @SDL_surface_magic
  br label %10

10:                                               ; preds = %5, %1
  %11 = phi i1 [ false, %1 ], [ %9, %5 ]
  ret i1 %11
}

; Function Attrs: nounwind uwtable
define hidden zeroext i1 @SDL_SetSurfaceAlphaMod_REAL(ptr noundef %0, i8 noundef zeroext %1) #0 {
  %3 = alloca i1, align 1
  %4 = alloca ptr, align 8
  %5 = alloca i8, align 1
  %6 = alloca i32, align 4
  %7 = alloca i32, align 4
  store ptr %0, ptr %4, align 8
  store i8 %1, ptr %5, align 1
  call void @llvm.lifetime.start.p0(i64 4, ptr %6) #8
  %8 = load ptr, ptr %4, align 8
  %9 = call zeroext i1 @SDL_SurfaceValid(ptr noundef %8)
  br i1 %9, label %12, label %10

10:                                               ; preds = %2
  %11 = call zeroext i1 (ptr, ...) @SDL_SetError_REAL(ptr noundef @.str, ptr noundef @.str.5)
  store i1 %11, ptr %3, align 1
  store i32 1, ptr %7, align 4
  br label %52

12:                                               ; preds = %2
  %13 = load i8, ptr %5, align 1
  %14 = load ptr, ptr %4, align 8
  %15 = getelementptr inbounds nuw %struct.SDL_Surface, ptr %14, i32 0, i32 17
  %16 = getelementptr inbounds nuw %struct.SDL_BlitMap, ptr %15, i32 0, i32 3
  %17 = getelementptr inbounds nuw %struct.SDL_BlitInfo, ptr %16, i32 0, i32 23
  store i8 %13, ptr %17, align 1
  %18 = load ptr, ptr %4, align 8
  %19 = getelementptr inbounds nuw %struct.SDL_Surface, ptr %18, i32 0, i32 17
  %20 = getelementptr inbounds nuw %struct.SDL_BlitMap, ptr %19, i32 0, i32 3
  %21 = getelementptr inbounds nuw %struct.SDL_BlitInfo, ptr %20, i32 0, i32 18
  %22 = load i32, ptr %21, align 8
  store i32 %22, ptr %6, align 4
  %23 = load i8, ptr %5, align 1
  %24 = zext i8 %23 to i32
  %25 = icmp ne i32 %24, 255
  br i1 %25, label %26, label %33

26:                                               ; preds = %12
  %27 = load ptr, ptr %4, align 8
  %28 = getelementptr inbounds nuw %struct.SDL_Surface, ptr %27, i32 0, i32 17
  %29 = getelementptr inbounds nuw %struct.SDL_BlitMap, ptr %28, i32 0, i32 3
  %30 = getelementptr inbounds nuw %struct.SDL_BlitInfo, ptr %29, i32 0, i32 18
  %31 = load i32, ptr %30, align 8
  %32 = or i32 %31, 2
  store i32 %32, ptr %30, align 8
  br label %40

33:                                               ; preds = %12
  %34 = load ptr, ptr %4, align 8
  %35 = getelementptr inbounds nuw %struct.SDL_Surface, ptr %34, i32 0, i32 17
  %36 = getelementptr inbounds nuw %struct.SDL_BlitMap, ptr %35, i32 0, i32 3
  %37 = getelementptr inbounds nuw %struct.SDL_BlitInfo, ptr %36, i32 0, i32 18
  %38 = load i32, ptr %37, align 8
  %39 = and i32 %38, -3
  store i32 %39, ptr %37, align 8
  br label %40

40:                                               ; preds = %33, %26
  %41 = load ptr, ptr %4, align 8
  %42 = getelementptr inbounds nuw %struct.SDL_Surface, ptr %41, i32 0, i32 17
  %43 = getelementptr inbounds nuw %struct.SDL_BlitMap, ptr %42, i32 0, i32 3
  %44 = getelementptr inbounds nuw %struct.SDL_BlitInfo, ptr %43, i32 0, i32 18
  %45 = load i32, ptr %44, align 8
  %46 = load i32, ptr %6, align 4
  %47 = icmp ne i32 %45, %46
  br i1 %47, label %48, label %51

48:                                               ; preds = %40
  %49 = load ptr, ptr %4, align 8
  %50 = getelementptr inbounds nuw %struct.SDL_Surface, ptr %49, i32 0, i32 17
  call void @SDL_InvalidateMap(ptr noundef %50)
  br label %51

51:                                               ; preds = %48, %40
  store i1 true, ptr %3, align 1
  store i32 1, ptr %7, align 4
  br label %52

52:                                               ; preds = %51, %10
  call void @llvm.lifetime.end.p0(i64 4, ptr %6) #8
  %53 = load i1, ptr %3, align 1
  ret i1 %53
}