; Function Attrs: nounwind uwtable
define hidden zeroext i1 @SDL_SetSurfaceAlphaMod_REAL(ptr noundef %0, i8 noundef zeroext %1) local_unnamed_addr #2 {
  %.not.i = icmp eq ptr %0, null
  br i1 %.not.i, label %SDL_SurfaceValid.exit.thread, label %SDL_SurfaceValid.exit

SDL_SurfaceValid.exit:                            ; preds = %2
  %3 = getelementptr inbounds nuw i8, ptr %0, i64 40
  %4 = load ptr, ptr %3, align 8
  %5 = icmp eq ptr %4, @SDL_surface_magic
  br i1 %5, label %7, label %SDL_SurfaceValid.exit.thread

SDL_SurfaceValid.exit.thread:                     ; preds = %2, %SDL_SurfaceValid.exit
  %6 = tail call zeroext i1 (ptr, ...) @SDL_SetError_REAL(ptr noundef nonnull @.str, ptr noundef nonnull @.str.5) #10
  br label %14

7:                                                ; preds = %SDL_SurfaceValid.exit
  %8 = getelementptr inbounds nuw i8, ptr %0, i64 267
  store i8 %1, ptr %8, align 1
  %9 = getelementptr inbounds nuw i8, ptr %0, i64 256
  %10 = load i32, ptr %9, align 8
  %.not = icmp eq i8 %1, -1
  %11 = and i32 %10, -3
  %masksel = select i1 %.not, i32 0, i32 2
  %storemerge = or disjoint i32 %11, %masksel
  store i32 %storemerge, ptr %9, align 8
  %.not10 = icmp eq i32 %storemerge, %10
  br i1 %.not10, label %14, label %12

12:                                               ; preds = %7
  %13 = getelementptr inbounds nuw i8, ptr %0, i64 120
  tail call void @SDL_InvalidateMap(ptr noundef nonnull %13) #10
  br label %14

14:                                               ; preds = %7, %12, %SDL_SurfaceValid.exit.thread
  %.0 = phi i1 [ %6, %SDL_SurfaceValid.exit.thread ], [ true, %12 ], [ true, %7 ]
  ret i1 %.0
}